target datalayout = "e-m:e-p270:32:32-p271:32:32-p272:64:64-i64:64-i128:128-f80:128-n8:16:32:64-S128"
target triple = "x86_64-pc-linux-gnu"

%struct.ossl_ml_kem_key_st = type { ptr, ptr, ptr, ptr, ptr, ptr, ptr, ptr, ptr, ptr, ptr, ptr, ptr, i32, i32, [64 x i8], ptr }

; Function Attrs: nounwind uwtable
define ptr @ossl_ml_kem_set_seed(ptr noundef %0, i64 noundef %1, ptr noundef %2) #0 {
  %4 = alloca ptr, align 8
  %5 = alloca ptr, align 8
  %6 = alloca i64, align 8
  %7 = alloca ptr, align 8
  store ptr %0, ptr %5, align 8, !tbaa !25
  store i64 %1, ptr %6, align 8, !tbaa !42
  store ptr %2, ptr %7, align 8, !tbaa !3
  %8 = load ptr, ptr %7, align 8, !tbaa !3
  %9 = icmp eq ptr %8, null
  br i1 %9, label %23, label %10

10:                                               ; preds = %3
  %11 = load ptr, ptr %7, align 8, !tbaa !3
  %12 = getelementptr inbounds nuw %struct.ossl_ml_kem_key_st, ptr %11, i32 0, i32 8
  %13 = load ptr, ptr %12, align 8, !tbaa !8
  %14 = icmp ne ptr %13, null
  br i1 %14, label %23, label %15

15:                                               ; preds = %10
  %16 = load ptr, ptr %7, align 8, !tbaa !3
  %17 = getelementptr inbounds nuw %struct.ossl_ml_kem_key_st, ptr %16, i32 0, i32 12
  %18 = load ptr, ptr %17, align 8, !tbaa !22
  %19 = icmp ne ptr %18, null
  br i1 %19, label %23, label %20

20:                                               ; preds = %15
  %21 = load i64, ptr %6, align 8, !tbaa !42
  %22 = icmp ne i64 %21, 64
  br i1 %22, label %23, label %24

23:                                               ; preds = %20, %15, %10, %3
  store ptr null, ptr %4, align 8
  br label %47

24:                                               ; preds = %20
  %25 = load ptr, ptr %7, align 8, !tbaa !3
  %26 = getelementptr inbounds nuw %struct.ossl_ml_kem_key_st, ptr %25, i32 0, i32 15
  %27 = getelementptr inbounds [64 x i8], ptr %26, i64 0, i64 0
  %28 = load ptr, ptr %7, align 8, !tbaa !3
  %29 = getelementptr inbounds nuw %struct.ossl_ml_kem_key_st, ptr %28, i32 0, i32 11
  store ptr %27, ptr %29, align 8, !tbaa !21
  %30 = load ptr, ptr %7, align 8, !tbaa !3
  %31 = getelementptr inbounds nuw %struct.ossl_ml_kem_key_st, ptr %30, i32 0, i32 11
  %32 = load ptr, ptr %31, align 8, !tbaa !21
  %33 = getelementptr inbounds i8, ptr %32, i64 32
  %34 = load ptr, ptr %7, align 8, !tbaa !3
  %35 = getelementptr inbounds nuw %struct.ossl_ml_kem_key_st, ptr %34, i32 0, i32 12
  store ptr %33, ptr %35, align 8, !tbaa !22
  %36 = load ptr, ptr %7, align 8, !tbaa !3
  %37 = getelementptr inbounds nuw %struct.ossl_ml_kem_key_st, ptr %36, i32 0, i32 12
  %38 = load ptr, ptr %37, align 8, !tbaa !22
  %39 = load ptr, ptr %5, align 8, !tbaa !25
  call void @llvm.memcpy.p0.p0.i64(ptr align 1 %38, ptr align 1 %39, i64 32, i1 false)
  %40 = load ptr, ptr %5, align 8, !tbaa !25
  %41 = getelementptr inbounds i8, ptr %40, i64 32
  store ptr %41, ptr %5, align 8, !tbaa !25
  %42 = load ptr, ptr %7, align 8, !tbaa !3
  %43 = getelementptr inbounds nuw %struct.ossl_ml_kem_key_st, ptr %42, i32 0, i32 11
  %44 = load ptr, ptr %43, align 8, !tbaa !21
  %45 = load ptr, ptr %5, align 8, !tbaa !25
  call void @llvm.memcpy.p0.p0.i64(ptr align 1 %44, ptr align 1 %45, i64 32, i1 false)
  %46 = load ptr, ptr %7, align 8, !tbaa !3
  store ptr %46, ptr %4, align 8
  br label %47

47:                                               ; preds = %24, %23
  %48 = load ptr, ptr %4, align 8
  ret ptr %48
}