; Function Attrs: mustprogress nofree norecurse nosync nounwind willreturn memory(argmem: readwrite) uwtable
define noundef ptr @ossl_ml_kem_set_seed(ptr noundef readonly captures(none) %0, i64 noundef %1, ptr noundef %2) local_unnamed_addr #7 {
  %4 = icmp eq ptr %2, null
  br i1 %4, label %18, label %5

5:                                                ; preds = %3
  %6 = getelementptr inbounds nuw i8, ptr %2, i64 64
  %7 = load ptr, ptr %6, align 8, !tbaa !3
  %.not = icmp eq ptr %7, null
  br i1 %.not, label %8, label %18

8:                                                ; preds = %5
  %9 = getelementptr inbounds nuw i8, ptr %2, i64 96
  %10 = load ptr, ptr %9, align 8, !tbaa !26
  %11 = icmp ne ptr %10, null
  %12 = icmp ne i64 %1, 64
  %or.cond = or i1 %12, %11
  br i1 %or.cond, label %18, label %13

13:                                               ; preds = %8
  %14 = getelementptr inbounds nuw i8, ptr %2, i64 112
  %15 = getelementptr inbounds nuw i8, ptr %2, i64 88
  store ptr %14, ptr %15, align 8, !tbaa !34
  %16 = getelementptr inbounds nuw i8, ptr %2, i64 144
  store ptr %16, ptr %9, align 8, !tbaa !26
  tail call void @llvm.memcpy.p0.p0.i64(ptr noundef nonnull align 1 dereferenceable(32) %16, ptr noundef nonnull align 1 dereferenceable(32) %0, i64 32, i1 false)
  %17 = getelementptr inbounds nuw i8, ptr %0, i64 32
  tail call void @llvm.memcpy.p0.p0.i64(ptr noundef nonnull align 1 dereferenceable(32) %14, ptr noundef nonnull align 1 dereferenceable(32) %17, i64 32, i1 false)
  br label %18

18:                                               ; preds = %3, %5, %8, %13
  %.0 = phi ptr [ %2, %13 ], [ null, %8 ], [ null, %5 ], [ null, %3 ]
  ret ptr %.0
}